target datalayout = "e-m:e-p270:32:32-p271:32:32-p272:64:64-i64:64-i128:128-f80:128-n8:16:32:64-S128"
target triple = "x86_64-pc-linux-gnu"

@.str = private unnamed_addr constant [1 x i8] zeroinitializer, align 1

; Function Attrs: nounwind uwtable
define ptr @Java_sun_awt_X11_XlibWrapper_XSetLocaleModifiers(ptr noundef %0, ptr noundef %1, ptr noundef %2) #0 {
  %4 = alloca ptr, align 8
  %5 = alloca ptr, align 8
  %6 = alloca ptr, align 8
  %7 = alloca ptr, align 8
  %8 = alloca ptr, align 8
  %9 = alloca ptr, align 8
  store ptr %0, ptr %5, align 8
  store ptr %1, ptr %6, align 8
  store ptr %2, ptr %7, align 8
  store ptr null, ptr %8, align 8
  store ptr null, ptr %9, align 8
  %10 = load ptr, ptr %7, align 8
  %11 = icmp eq ptr %10, null
  br i1 %11, label %22, label %12

12:                                               ; preds = %3
  %13 = load ptr, ptr %5, align 8
  %14 = load ptr, ptr %7, align 8
  %15 = call ptr @JNU_GetStringPlatformChars(ptr noundef %13, ptr noundef %14, ptr noundef null)
  store ptr %15, ptr %8, align 8
  br label %16

16:                                               ; preds = %12
  %17 = load ptr, ptr %8, align 8
  %18 = icmp eq ptr %17, null
  br i1 %18, label %19, label %20

19:                                               ; preds = %16
  store ptr null, ptr %4, align 8
  br label %43

20:                                               ; preds = %16
  br label %21

21:                                               ; preds = %20
  br label %22

22:                                               ; preds = %21, %3
  %23 = load ptr, ptr %8, align 8
  %24 = icmp ne ptr %23, null
  br i1 %24, label %25, label %31

25:                                               ; preds = %22
  %26 = load ptr, ptr %8, align 8
  %27 = call ptr @XSetLocaleModifiers(ptr noundef %26)
  store ptr %27, ptr %9, align 8
  %28 = load ptr, ptr %5, align 8
  %29 = load ptr, ptr %7, align 8
  %30 = load ptr, ptr %8, align 8
  call void @JNU_ReleaseStringPlatformChars(ptr noundef %28, ptr noundef %29, ptr noundef %30)
  br label %33

31:                                               ; preds = %22
  %32 = call ptr @XSetLocaleModifiers(ptr noundef @.str)
  store ptr %32, ptr %9, align 8
  br label %33

33:                                               ; preds = %31, %25
  %34 = load ptr, ptr %9, align 8
  %35 = icmp ne ptr %34, null
  br i1 %35, label %36, label %40

36:                                               ; preds = %33
  %37 = load ptr, ptr %5, align 8
  %38 = load ptr, ptr %9, align 8
  %39 = call ptr @JNU_NewStringPlatform(ptr noundef %37, ptr noundef %38)
  br label %41

40:                                               ; preds = %33
  br label %41

41:                                               ; preds = %40, %36
  %42 = phi ptr [ %39, %36 ], [ null, %40 ]
  store ptr %42, ptr %4, align 8
  br label %43

43:                                               ; preds = %41, %19
  %44 = load ptr, ptr %4, align 8
  ret ptr %44
}