; Function Attrs: nounwind uwtable
define ptr @Java_sun_awt_X11_XlibWrapper_XSetLocaleModifiers(ptr noundef %0, ptr nocapture noundef readnone %1, ptr noundef %2) local_unnamed_addr #0 {
  %4 = icmp eq ptr %2, null
  br i1 %4, label %10, label %5

5:                                                ; preds = %3
  %6 = tail call ptr @JNU_GetStringPlatformChars(ptr noundef %0, ptr noundef nonnull %2, ptr noundef null) #14
  %7 = icmp eq ptr %6, null
  br i1 %7, label %15, label %8

8:                                                ; preds = %5
  %9 = tail call ptr @XSetLocaleModifiers(ptr noundef nonnull %6) #14
  tail call void @JNU_ReleaseStringPlatformChars(ptr noundef %0, ptr noundef nonnull %2, ptr noundef nonnull %6) #14
  br label %12

10:                                               ; preds = %3
  %11 = tail call ptr @XSetLocaleModifiers(ptr noundef nonnull @.str) #14
  br label %12

12:                                               ; preds = %10, %8
  %.0 = phi ptr [ %9, %8 ], [ %11, %10 ]
  %.not17 = icmp eq ptr %.0, null
  br i1 %.not17, label %15, label %13

13:                                               ; preds = %12
  %14 = tail call ptr @JNU_NewStringPlatform(ptr noundef %0, ptr noundef nonnull %.0) #14
  br label %15

15:                                               ; preds = %13, %12, %5
  %.014 = phi ptr [ null, %5 ], [ %14, %13 ], [ null, %12 ]
  ret ptr %.014
}